; Function Attrs: mustprogress uwtable
define dso_local void @_ZN37btSequentialImpulseConstraintSolverMt27randomizeConstraintOrderingEii(ptr noundef nonnull align 8 dereferenceable(920) %0, i32 noundef %1, i32 noundef %2) unnamed_addr #0 align 2 {
  %4 = getelementptr inbounds nuw i8, ptr %0, i64 708
  %5 = load i32, ptr %4, align 4, !tbaa !16
  %6 = icmp sgt i32 %5, 1
  br i1 %6, label %.lr.ph.i, label %.preheader.i

.lr.ph.i:                                         ; preds = %3
  %7 = getelementptr inbounds nuw i8, ptr %0, i64 720
  br label %13

.preheader.i:                                     ; preds = %13, %3
  %8 = getelementptr inbounds nuw i8, ptr %0, i64 612
  %9 = load i32, ptr %8, align 4, !tbaa !23
  %10 = icmp sgt i32 %9, 0
  br i1 %10, label %.lr.ph29.i, label %_ZN37btSequentialImpulseConstraintSolverMt34randomizeBatchedConstraintOrderingEP20btBatchedConstraints.exit

.lr.ph29.i:                                       ; preds = %.preheader.i
  %11 = getelementptr inbounds nuw i8, ptr %0, i64 624
  %12 = getelementptr inbounds nuw i8, ptr %0, i64 592
  br label %25

13:                                               ; preds = %13, %.lr.ph.i
  %indvars.iv.i = phi i64 [ 1, %.lr.ph.i ], [ %indvars.iv.next.i, %13 ]
  %indvars.iv.next.i = add nuw nsw i64 %indvars.iv.i, 1
  %14 = trunc nuw nsw i64 %indvars.iv.next.i to i32
  %15 = tail call noundef i32 @_ZN35btSequentialImpulseConstraintSolver10btRandInt2Ei(ptr noundef nonnull align 8 dereferenceable(920) %0, i32 noundef %14)
  %16 = load ptr, ptr %7, align 8, !tbaa !15
  %17 = getelementptr inbounds nuw i32, ptr %16, i64 %indvars.iv.i
  %18 = load i32, ptr %17, align 4, !tbaa !67
  %19 = sext i32 %15 to i64
  %20 = getelementptr inbounds i32, ptr %16, i64 %19
  %21 = load i32, ptr %20, align 4, !tbaa !67
  store i32 %21, ptr %17, align 4, !tbaa !67
  store i32 %18, ptr %20, align 4, !tbaa !67
  %22 = load i32, ptr %4, align 4, !tbaa !16
  %23 = sext i32 %22 to i64
  %24 = icmp slt i64 %indvars.iv.next.i, %23
  br i1 %24, label %13, label %.preheader.i, !llvm.loop !247

25:                                               ; preds = %._crit_edge.i, %.lr.ph29.i
  %26 = phi i32 [ %9, %.lr.ph29.i ], [ %34, %._crit_edge.i ]
  %indvars.iv35.i = phi i64 [ 0, %.lr.ph29.i ], [ %indvars.iv.next36.i, %._crit_edge.i ]
  %27 = load ptr, ptr %11, align 8, !tbaa !22
  %28 = getelementptr inbounds nuw %"struct.btBatchedConstraints::Range", ptr %27, i64 %indvars.iv35.i
  %29 = load i32, ptr %28, align 4, !tbaa !103
  %30 = getelementptr inbounds nuw i8, ptr %28, i64 4
  %31 = load i32, ptr %30, align 4, !tbaa !105
  %32 = icmp slt i32 %29, %31
  br i1 %32, label %.lr.ph27.preheader.i, label %._crit_edge.i

.lr.ph27.preheader.i:                             ; preds = %25
  %33 = sext i32 %29 to i64
  br label %.lr.ph27.i

._crit_edge.loopexit.i:                           ; preds = %.lr.ph27.i
  %.pre.i = load i32, ptr %8, align 4, !tbaa !23
  br label %._crit_edge.i

._crit_edge.i:                                    ; preds = %._crit_edge.loopexit.i, %25
  %34 = phi i32 [ %.pre.i, %._crit_edge.loopexit.i ], [ %26, %25 ]
  %indvars.iv.next36.i = add nuw nsw i64 %indvars.iv35.i, 1
  %35 = sext i32 %34 to i64
  %36 = icmp slt i64 %indvars.iv.next36.i, %35
  br i1 %36, label %25, label %_ZN37btSequentialImpulseConstraintSolverMt34randomizeBatchedConstraintOrderingEP20btBatchedConstraints.exit, !llvm.loop !248

.lr.ph27.i:                                       ; preds = %.lr.ph27.i, %.lr.ph27.preheader.i
  %indvars.iv32.i = phi i64 [ %33, %.lr.ph27.preheader.i ], [ %indvars.iv.next33.i, %.lr.ph27.i ]
  %37 = load i32, ptr %28, align 4, !tbaa !103
  %indvars.iv.next33.i = add nsw i64 %indvars.iv32.i, 1
  %38 = trunc nsw i64 %indvars.iv.next33.i to i32
  %39 = sub i32 %38, %37
  %40 = tail call noundef i32 @_ZN35btSequentialImpulseConstraintSolver10btRandInt2Ei(ptr noundef nonnull align 8 dereferenceable(920) %0, i32 noundef %39)
  %41 = add nsw i32 %40, %37
  %42 = load ptr, ptr %12, align 8, !tbaa !15
  %43 = getelementptr inbounds i32, ptr %42, i64 %indvars.iv32.i
  %44 = load i32, ptr %43, align 4, !tbaa !67
  %45 = sext i32 %41 to i64
  %46 = getelementptr inbounds i32, ptr %42, i64 %45
  %47 = load i32, ptr %46, align 4, !tbaa !67
  store i32 %47, ptr %43, align 4, !tbaa !67
  store i32 %44, ptr %46, align 4, !tbaa !67
  %48 = load i32, ptr %30, align 4, !tbaa !105
  %49 = sext i32 %48 to i64
  %50 = icmp slt i64 %indvars.iv.next33.i, %49
  br i1 %50, label %.lr.ph27.i, label %._crit_edge.loopexit.i, !llvm.loop !249

_ZN37btSequentialImpulseConstraintSolverMt34randomizeBatchedConstraintOrderingEP20btBatchedConstraints.exit: ; preds = %._crit_edge.i, %.preheader.i
  %51 = icmp slt i32 %1, %2
  br i1 %51, label %52, label %_ZN37btSequentialImpulseConstraintSolverMt34randomizeBatchedConstraintOrderingEP20btBatchedConstraints.exit16

52:                                               ; preds = %_ZN37btSequentialImpulseConstraintSolverMt34randomizeBatchedConstraintOrderingEP20btBatchedConstraints.exit
  %53 = getelementptr inbounds nuw i8, ptr %0, i64 540
  %54 = load i32, ptr %53, align 4, !tbaa !16
  %55 = icmp sgt i32 %54, 1
  br i1 %55, label %.lr.ph.i13, label %.preheader.i2

.lr.ph.i13:                                       ; preds = %52
  %56 = getelementptr inbounds nuw i8, ptr %0, i64 552
  br label %62

.preheader.i2:                                    ; preds = %62, %52
  %57 = getelementptr inbounds nuw i8, ptr %0, i64 444
  %58 = load i32, ptr %57, align 4, !tbaa !23
  %59 = icmp sgt i32 %58, 0
  br i1 %59, label %.lr.ph29.i3, label %_ZN37btSequentialImpulseConstraintSolverMt34randomizeBatchedConstraintOrderingEP20btBatchedConstraints.exit16

.lr.ph29.i3:                                      ; preds = %.preheader.i2
  %60 = getelementptr inbounds nuw i8, ptr %0, i64 456
  %61 = getelementptr inbounds nuw i8, ptr %0, i64 424
  br label %74

62:                                               ; preds = %62, %.lr.ph.i13
  %indvars.iv.i14 = phi i64 [ 1, %.lr.ph.i13 ], [ %indvars.iv.next.i15, %62 ]
  %indvars.iv.next.i15 = add nuw nsw i64 %indvars.iv.i14, 1
  %63 = trunc nuw nsw i64 %indvars.iv.next.i15 to i32
  %64 = tail call noundef i32 @_ZN35btSequentialImpulseConstraintSolver10btRandInt2Ei(ptr noundef nonnull align 8 dereferenceable(920) %0, i32 noundef %63)
  %65 = load ptr, ptr %56, align 8, !tbaa !15
  %66 = getelementptr inbounds nuw i32, ptr %65, i64 %indvars.iv.i14
  %67 = load i32, ptr %66, align 4, !tbaa !67
  %68 = sext i32 %64 to i64
  %69 = getelementptr inbounds i32, ptr %65, i64 %68
  %70 = load i32, ptr %69, align 4, !tbaa !67
  store i32 %70, ptr %66, align 4, !tbaa !67
  store i32 %67, ptr %69, align 4, !tbaa !67
  %71 = load i32, ptr %53, align 4, !tbaa !16
  %72 = sext i32 %71 to i64
  %73 = icmp slt i64 %indvars.iv.next.i15, %72
  br i1 %73, label %62, label %.preheader.i2, !llvm.loop !247

74:                                               ; preds = %._crit_edge.i5, %.lr.ph29.i3
  %75 = phi i32 [ %58, %.lr.ph29.i3 ], [ %83, %._crit_edge.i5 ]
  %indvars.iv35.i4 = phi i64 [ 0, %.lr.ph29.i3 ], [ %indvars.iv.next36.i6, %._crit_edge.i5 ]
  %76 = load ptr, ptr %60, align 8, !tbaa !22
  %77 = getelementptr inbounds nuw %"struct.btBatchedConstraints::Range", ptr %76, i64 %indvars.iv35.i4
  %78 = load i32, ptr %77, align 4, !tbaa !103
  %79 = getelementptr inbounds nuw i8, ptr %77, i64 4
  %80 = load i32, ptr %79, align 4, !tbaa !105
  %81 = icmp slt i32 %78, %80
  br i1 %81, label %.lr.ph27.preheader.i7, label %._crit_edge.i5

.lr.ph27.preheader.i7:                            ; preds = %74
  %82 = sext i32 %78 to i64
  br label %.lr.ph27.i8

._crit_edge.loopexit.i11:                         ; preds = %.lr.ph27.i8
  %.pre.i12 = load i32, ptr %57, align 4, !tbaa !23
  br label %._crit_edge.i5

._crit_edge.i5:                                   ; preds = %._crit_edge.loopexit.i11, %74
  %83 = phi i32 [ %.pre.i12, %._crit_edge.loopexit.i11 ], [ %75, %74 ]
  %indvars.iv.next36.i6 = add nuw nsw i64 %indvars.iv35.i4, 1
  %84 = sext i32 %83 to i64
  %85 = icmp slt i64 %indvars.iv.next36.i6, %84
  br i1 %85, label %74, label %_ZN37btSequentialImpulseConstraintSolverMt34randomizeBatchedConstraintOrderingEP20btBatchedConstraints.exit16, !llvm.loop !248

.lr.ph27.i8:                                      ; preds = %.lr.ph27.i8, %.lr.ph27.preheader.i7
  %indvars.iv32.i9 = phi i64 [ %82, %.lr.ph27.preheader.i7 ], [ %indvars.iv.next33.i10, %.lr.ph27.i8 ]
  %86 = load i32, ptr %77, align 4, !tbaa !103
  %indvars.iv.next33.i10 = add nsw i64 %indvars.iv32.i9, 1
  %87 = trunc nsw i64 %indvars.iv.next33.i10 to i32
  %88 = sub i32 %87, %86
  %89 = tail call noundef i32 @_ZN35btSequentialImpulseConstraintSolver10btRandInt2Ei(ptr noundef nonnull align 8 dereferenceable(920) %0, i32 noundef %88)
  %90 = add nsw i32 %89, %86
  %91 = load ptr, ptr %61, align 8, !tbaa !15
  %92 = getelementptr inbounds i32, ptr %91, i64 %indvars.iv32.i9
  %93 = load i32, ptr %92, align 4, !tbaa !67
  %94 = sext i32 %90 to i64
  %95 = getelementptr inbounds i32, ptr %91, i64 %94
  %96 = load i32, ptr %95, align 4, !tbaa !67
  store i32 %96, ptr %92, align 4, !tbaa !67
  store i32 %93, ptr %95, align 4, !tbaa !67
  %97 = load i32, ptr %79, align 4, !tbaa !105
  %98 = sext i32 %97 to i64
  %99 = icmp slt i64 %indvars.iv.next33.i10, %98
  br i1 %99, label %.lr.ph27.i8, label %._crit_edge.loopexit.i11, !llvm.loop !249

_ZN37btSequentialImpulseConstraintSolverMt34randomizeBatchedConstraintOrderingEP20btBatchedConstraints.exit16: ; preds = %._crit_edge.i5, %.preheader.i2, %_ZN37btSequentialImpulseConstraintSolverMt34randomizeBatchedConstraintOrderingEP20btBatchedConstraints.exit
  ret void
}